-----BEGIN RSA PRIVATE KEY-----
MIICXQIBAAKBgQCtQ5UBi0pY2ahc8v5AwwcWo+4O4TVdlQJRSvE9Aqn9hJ3vSDE8
/Cfv6Kqvg5jFBwKsXQVZ8BDT+VYmnrhg9TVXOTmZ3V+komIMe0lbHE+VeetUb3Zk
wlwj4VzvhWWKs+Jb0pYB0L7N5Q/kehGGVZ55UTiIxjKl+gWB/I1qqdK0nQIDAQAB
AoGBAJ2SwubemMTpXjb6PsUDGWU7vPsHUhNDuxHXiEGmNJb9juzYyP7fjCqhfOmW
Us+NKp87EezTaVp+fh0taB21o8Wp0bZtAJvIgJX6eR3q4moMBLCCxe1gTJnwBe91
Hd8+P3iNt3QzsUBKdrtFHWsGYBmtpFnDvBYMUz/s9q8ayQn5AkEA4CSHbb5xsY/0
QyAg8J+0Q0gotOEWPFzKgXdupnkpZdJc39C8/LcTw0LF4PFtF/42zR4/fX9pRRr8
xIKSLgm2CwJBAMXj0ptgLyFjhJuA2vkHTKRd7jurA4mfZyIzjqdbAS/3sMERJcCM
uPBv2NY74z4t9yd/u1q7Wx1aASIgN9I2MPcCQFIncXAbDqcLYXc9DnXDw5mpmCn8
Gl9Tj3H2qZrg6/iDK0Fpy+tA20CFd+vj8Z2KsuFpxdGk4pvOsXkBdrzjGFMCQENb
N11hkMk5mXJgmqf23xR3UFaI8AxQ8IbIq761ECNmmIgusP3oKC7WsyTAf6mzdZPB
O2E3sly8PPSDqNxpS6MCQQC7xpEnYL/LuunD06gyBp9AvAMVKnZY8M1d6tsmm2aR
eihRboHepJ24A3HCrEIja65RrP+gMuzTjBhOaiYRMVoI
-----END RSA PRIVATE KEY-----
Certificate:
    Data:
        Version: 3 (0x2)
        Serial Number: 1 (0x1)
    Signature Algorithm: sha1WithRSAEncryption
        Issuer: CN=LegitCA, ST=DC, C=US/emailAddress=root@defense.gov, O=Acme, OU=BizX
        Validity
            Not Before: Mar 28 05:47:37 2016 GMT
            Not After : Mar 27 05:47:37 2021 GMT
        Subject: CN=LegitSvr, ST=DC, C=US/emailAddress=root@defense.gov, O=Acme, OU=BizX
        Subject Public Key Info:
            Public Key Algorithm: rsaEncryption
                Public-Key: (1024 bit)
                Modulus:
                    00:ad:43:95:01:8b:4a:58:d9:a8:5c:f2:fe:40:c3:
                    07:16:a3:ee:0e:e1:35:5d:95:02:51:4a:f1:3d:02:
                    a9:fd:84:9d:ef:48:31:3c:fc:27:ef:e8:aa:af:83:
                    98:c5:07:02:ac:5d:05:59:f0:10:d3:f9:56:26:9e:
                    b8:60:f5:35:57:39:39:99:dd:5f:a4:a2:62:0c:7b:
                    49:5b:1c:4f:95:79:eb:54:6f:76:64:c2:5c:23:e1:
                    5c:ef:85:65:8a:b3:e2:5b:d2:96:01:d0:be:cd:e5:
                    0f:e4:7a:11:86:55:9e:79:51:38:88:c6:32:a5:fa:
                    05:81:fc:8d:6a:a9:d2:b4:9d
                Exponent: 65537 (0x10001)
        X509v3 extensions:
            X509v3 Basic Constraints: 
                CA:FALSE
            X509v3 Key Usage: 
                Digital Signature, Non Repudiation, Key Encipherment
            X509v3 Subject Alternative Name: 
                DNS:defense.gov, DNS:alt.defense.gov
    Signature Algorithm: sha1WithRSAEncryption
         75:0e:bc:85:e0:40:7a:30:5c:bc:ef:c6:50:55:7d:45:3b:32:
         fa:8b:48:0a:e0:f1:69:5a:22:8f:0e:95:27:2b:3d:d7:8e:92:
         bc:10:6d:f0:8b:21:04:53:b0:ad:ea:a8:f0:4b:e6:6f:60:35:
         5d:9f:5a:5d:08:2b:b0:d9:81:f5:09:18:1a:93:1b:91:58:1e:
         99:83:f2:f6:d3:60:c7:cf:01:ea:1d:3c:c5:4a:43:4b:4a:2f:
         a3:5e:8f:bd:1e:96:02:69:6b:42:db:c7:7f:1b:58:3d:0f:c6:
         f9:9c:f2:8c:c0:13:d0:b2:4a:ef:51:ac:e4:00:68:ad:fe:f6:
         0f:b0:95:78:53:d5:f5:bb:10:a6:be:92:ce:bf:a8:b0:f4:b6:
         05:c4:80:00:90:5f:98:53:44:fa:69:c2:14:d0:fb:4d:55:6b:
         63:52:bc:c4:23:34:2c:f2:7e:fc:48:02:27:23:ac:32:12:8b:
         83:4c:93:d5:2e:95:55:56:0e:23:30:5c:a2:e4:fb:0e:a3:dd:
         94:2a:98:f4:8c:31:b7:a1:57:97:85:01:35:f9:94:9a:27:c5:
         d0:0f:2b:0a:39:24:58:9a:ba:2a:12:dd:4b:8f:ee:34:60:fb:
         f2:66:56:49:78:33:a3:88:cc:ba:45:05:d4:12:25:84:6c:38:
         6e:ed:28:01
-----BEGIN CERTIFICATE-----
MIIDETCCAfmgAwIBAgIBATANBgkqhkiG9w0BAQUFADBrMRAwDgYDVQQDDAdMZWdp
dENBMQswCQYDVQQIDAJEQzELMAkGA1UEBhMCVVMxHzAdBgkqhkiG9w0BCQEWEHJv
b3RAZGVmZW5zZS5nb3YxDTALBgNVBAoMBEFjbWUxDTALBgNVBAsMBEJpelgwHhcN
MTYwMzI4MDU0NzM3WhcNMjEwMzI3MDU0NzM3WjBsMREwDwYDVQQDDAhMZWdpdFN2
cjELMAkGA1UECAwCREMxCzAJBgNVBAYTAlVTMR8wHQYJKoZIhvcNAQkBFhByb290
QGRlZmVuc2UuZ292MQ0wCwYDVQQKDARBY21lMQ0wCwYDVQQLDARCaXpYMIGfMA0G
CSqGSIb3DQEBAQUAA4GNADCBiQKBgQCtQ5UBi0pY2ahc8v5AwwcWo+4O4TVdlQJR
SvE9Aqn9hJ3vSDE8/Cfv6Kqvg5jFBwKsXQVZ8BDT+VYmnrhg9TVXOTmZ3V+komIM
e0lbHE+VeetUb3Zkwlwj4VzvhWWKs+Jb0pYB0L7N5Q/kehGGVZ55UTiIxjKl+gWB
/I1qqdK0nQIDAQABo0MwQTAJBgNVHRMEAjAAMAsGA1UdDwQEAwIF4DAnBgNVHREE
IDAeggtkZWZlbnNlLmdvdoIPYWx0LmRlZmVuc2UuZ292MA0GCSqGSIb3DQEBBQUA
A4IBAQB1DryF4EB6MFy878ZQVX1FOzL6i0gK4PFpWiKPDpUnKz3XjpK8EG3wiyEE
U7Ct6qjwS+ZvYDVdn1pdCCuw2YH1CRgakxuRWB6Zg/L202DHzwHqHTzFSkNLSi+j
Xo+9HpYCaWtC28d/G1g9D8b5nPKMwBPQskrvUazkAGit/vYPsJV4U9X1uxCmvpLO
v6iw9LYFxIAAkF+YU0T6acIU0PtNVWtjUrzEIzQs8n78SAInI6wyEouDTJPVLpVV
Vg4jMFyi5PsOo92UKpj0jDG3oVeXhQE1+ZSaJ8XQDysKOSRYmroqEt1Lj+40YPvy
ZlZJeDOjiMy6RQXUEiWEbDhu7SgB
-----END CERTIFICATE-----
